target datalayout = "e-m:e-p270:32:32-p271:32:32-p272:64:64-i64:64-i128:128-f80:128-n8:16:32:64-S128"
target triple = "x86_64-pc-linux-gnu"

%struct.PyVarObject = type { %struct._object, i64 }
%struct._object = type { %union.anon, ptr }
%union.anon = type { i64 }
%struct.PyMutex = type { i8 }
%struct._xid_lookup_state = type { %struct._PyXIData_registry_t }
%struct._PyXIData_registry_t = type { i32, i32, %struct.PyMutex, ptr }
%struct.llist_node = type { ptr, ptr }
%struct.PyWideStringList = type { i64, ptr }
%struct._pending_calls = type { ptr, %struct.PyMutex, i32, i32, i32, [300 x %struct._pending_call], i32, i32 }
%struct._pending_call = type { ptr, ptr, i32 }
%struct._stoptheworld_state = type { %struct.PyMutex, i8, i8, i8, %struct.PyEvent, i64, ptr }
%struct.PyEvent = type { i8 }
%struct.PyGC_Head = type { i64, i64 }
%struct._is = type { %struct._ceval_state, ptr, i64, i64, i32, i64, i32, i32, i32, i64, %struct.pythreads, ptr, ptr, i64, %struct._gc_runtime_state, ptr, ptr, %struct._import_state, %struct._gil_runtime_state, %struct.codecs_state, %struct.PyConfig, i64, ptr, ptr, ptr, ptr, [8 x ptr], i8, i64, [255 x ptr], %struct._PyXI_state_t, ptr, ptr, ptr, %struct._warnings_runtime_state, %struct.atexit_state, %struct._stoptheworld_state, %struct._qsbr_shared, ptr, ptr, [8 x ptr], [8 x ptr], [8 x ptr], i8, i8, %struct._py_object_state, %struct._Py_unicode_state, %struct._Py_long_state, %struct._dtoa_state, %struct._py_func_state, %struct._py_code_state, %struct._Py_dict_state, %struct._Py_exc_state, %struct._Py_mem_interp_free_queue, %struct.ast_state, %struct.types_state, %struct.callable_cache, i8, ptr, i64, %struct._rare_events, ptr, %struct._Py_GlobalMonitors, i8, i8, i64, i64, [8 x [19 x ptr]], [8 x ptr], [8 x i64], %struct._Py_interp_cached_objects, %struct._Py_interp_static_objects, i64, %struct._PyThreadStateImpl }
%struct._ceval_state = type { i64, i32, ptr, i32, %struct._pending_calls }
%struct.pythreads = type { i64, ptr, ptr, ptr, i64, i64 }
%struct._gc_runtime_state = type { ptr, i32, i32, i32, %struct.gc_generation, [2 x %struct.gc_generation], %struct.gc_generation, [3 x %struct.gc_generation_stats], i32, ptr, ptr, i64, i64, i32, i32 }
%struct.gc_generation = type { %struct.PyGC_Head, i32, i32 }
%struct.gc_generation_stats = type { i64, i64, i64 }
%struct._import_state = type { ptr, ptr, ptr, i32, i32, i32, ptr, %struct._PyRecursiveMutex, %struct.anon.801 }
%struct._PyRecursiveMutex = type { %struct.PyMutex, i64, i64 }
%struct.anon.801 = type { i32, i64, i32 }
%struct._gil_runtime_state = type { i64, ptr, i32, i64, %union.pthread_cond_t, %union.pthread_mutex_t, %union.pthread_cond_t, %union.pthread_mutex_t }
%union.pthread_cond_t = type { %struct.__pthread_cond_s }
%struct.__pthread_cond_s = type { %union.__atomic_wide_counter, %union.__atomic_wide_counter, [2 x i32], [2 x i32], i32, i32, [2 x i32] }
%union.__atomic_wide_counter = type { i64 }
%union.pthread_mutex_t = type { %struct.__pthread_mutex_s }
%struct.__pthread_mutex_s = type { i32, i32, i32, i32, i32, i16, i16, %struct.__pthread_internal_list }
%struct.__pthread_internal_list = type { ptr, ptr }
%struct.codecs_state = type { ptr, ptr, ptr, i32 }
%struct.PyConfig = type { i32, i32, i32, i32, i32, i32, i64, i32, i32, i32, i32, i32, i32, i32, ptr, i32, ptr, ptr, ptr, i32, %struct.PyWideStringList, %struct.PyWideStringList, %struct.PyWideStringList, %struct.PyWideStringList, i32, i32, i32, i32, i32, i32, i32, i32, i32, i32, i32, i32, i32, ptr, ptr, ptr, i32, i32, i32, i32, i32, ptr, ptr, ptr, ptr, i32, %struct.PyWideStringList, ptr, ptr, ptr, ptr, ptr, ptr, ptr, i32, ptr, ptr, ptr, ptr, i32, i32, i32 }
%struct._PyXI_state_t = type { %struct._xid_lookup_state, %struct.xi_exceptions }
%struct.xi_exceptions = type { ptr, ptr, ptr }
%struct._warnings_runtime_state = type { ptr, ptr, ptr, %struct._PyRecursiveMutex, i64 }
%struct.atexit_state = type { ptr, ptr }
%struct._qsbr_shared = type { i64, i64, ptr, i64, %struct.PyMutex, ptr }
%struct._py_object_state = type { %struct._Py_freelists, i32 }
%struct._Py_freelists = type { %struct._Py_freelist, %struct._Py_freelist, [20 x %struct._Py_freelist], %struct._Py_freelist, %struct._Py_freelist, %struct._Py_freelist, %struct._Py_freelist, %struct._Py_freelist, %struct._Py_freelist, %struct._Py_freelist, %struct._Py_freelist, %struct._Py_freelist, %struct._Py_freelist, %struct._Py_freelist, %struct._Py_freelist, %struct._Py_freelist }
%struct._Py_freelist = type { ptr, i64 }
%struct._Py_unicode_state = type { %struct._Py_unicode_fs_codec, ptr, %struct._Py_unicode_ids }
%struct._Py_unicode_fs_codec = type { ptr, i32, ptr, i32 }
%struct._Py_unicode_ids = type { i64, ptr }
%struct._Py_long_state = type { i32 }
%struct._dtoa_state = type { [8 x ptr], [8 x ptr], [288 x double], ptr }
%struct._py_func_state = type { i32, [4096 x %struct._func_version_cache_item] }
%struct._func_version_cache_item = type { ptr, ptr }
%struct._py_code_state = type { %struct.PyMutex, ptr }
%struct._Py_dict_state = type { i32, [8 x ptr] }
%struct._Py_exc_state = type { ptr, ptr, i32, ptr }
%struct._Py_mem_interp_free_queue = type { i32, %struct.PyMutex, %struct.llist_node }
%struct.ast_state = type { %struct._PyOnceFlag, i32, ptr, ptr, ptr, ptr, ptr, ptr, ptr, ptr, ptr, ptr, ptr, ptr, ptr, ptr, ptr, ptr, ptr, ptr, ptr, ptr, ptr, ptr, ptr, ptr, ptr, ptr, ptr, ptr, ptr, ptr, ptr, ptr, ptr, ptr, ptr, ptr, ptr, ptr, ptr, ptr, ptr, ptr, ptr, ptr, ptr, ptr, ptr, ptr, ptr, ptr, ptr, ptr, ptr, ptr, ptr, ptr, ptr, ptr, ptr, ptr, ptr, ptr, ptr, ptr, ptr, ptr, ptr, ptr, ptr, ptr, ptr, ptr, ptr, ptr, ptr, ptr, ptr, ptr, ptr, ptr, ptr, ptr, ptr, ptr, ptr, ptr, ptr, ptr, ptr, ptr, ptr, ptr, ptr, ptr, ptr, ptr, ptr, ptr, ptr, ptr, ptr, ptr, ptr, ptr, ptr, ptr, ptr, ptr, ptr, ptr, ptr, ptr, ptr, ptr, ptr, ptr, ptr, ptr, ptr, ptr, ptr, ptr, ptr, ptr, ptr, ptr, ptr, ptr, ptr, ptr, ptr, ptr, ptr, ptr, ptr, ptr, ptr, ptr, ptr, ptr, ptr, ptr, ptr, ptr, ptr, ptr, ptr, ptr, ptr, ptr, ptr, ptr, ptr, ptr, ptr, ptr, ptr, ptr, ptr, ptr, ptr, ptr, ptr, ptr, ptr, ptr, ptr, ptr, ptr, ptr, ptr, ptr, ptr, ptr, ptr, ptr, ptr, ptr, ptr, ptr, ptr, ptr, ptr, ptr, ptr, ptr, ptr, ptr, ptr, ptr, ptr, ptr, ptr, ptr, ptr, ptr, ptr, ptr, ptr, ptr, ptr, ptr, ptr, ptr, ptr, ptr, ptr, ptr, ptr, ptr, ptr, ptr, ptr, ptr, ptr, ptr, ptr, ptr, ptr, ptr, ptr, ptr, ptr, ptr, ptr, ptr, ptr, ptr, ptr, ptr, ptr, ptr, ptr, ptr, ptr, ptr, ptr, ptr, ptr, ptr, ptr, ptr, ptr }
%struct._PyOnceFlag = type { i8 }
%struct.types_state = type { i32, %struct.type_cache, %struct.anon.803, %struct.anon.804, %struct.PyMutex, [4096 x ptr] }
%struct.type_cache = type { [4096 x %struct.type_cache_entry] }
%struct.type_cache_entry = type { i32, ptr, ptr }
%struct.anon.803 = type { i64, [200 x %struct.managed_static_type_state] }
%struct.managed_static_type_state = type { ptr, i32, i32, i32, ptr, ptr, ptr }
%struct.anon.804 = type { i64, i64, [10 x %struct.managed_static_type_state] }
%struct.callable_cache = type { ptr, ptr, ptr, ptr }
%struct._rare_events = type { i8, i8, i8, i8, i8 }
%struct._Py_GlobalMonitors = type { [16 x i8] }
%struct._Py_interp_cached_objects = type { ptr, ptr, ptr, [10 x ptr], ptr, ptr, ptr, ptr, ptr, ptr, ptr }
%struct._Py_interp_static_objects = type { %struct.anon.805 }
%struct.anon.805 = type { i32, %struct.PyGC_Head, %struct.PyHamtObject, %struct.PyBaseExceptionObject }
%struct.PyHamtObject = type { %struct._object, ptr, ptr, i64 }
%struct.PyBaseExceptionObject = type { %struct._object, ptr, ptr, ptr, ptr, ptr, ptr, i8 }
%struct._PyThreadStateImpl = type { %struct._ts, ptr, ptr, ptr, %struct.llist_node }
%struct._ts = type { ptr, ptr, ptr, i64, %struct.anon.806, i32, i32, i32, i32, i32, i32, i32, i32, ptr, ptr, ptr, ptr, ptr, ptr, ptr, ptr, i32, ptr, i64, i64, ptr, i64, i32, ptr, ptr, ptr, i64, i64, ptr, ptr, ptr, %struct._err_stackitem, ptr, i64, ptr, ptr }
%struct.anon.806 = type { i32 }
%struct._err_stackitem = type { ptr, ptr }
%struct._Py_BackoffCounter = type { i16 }
%union._Py_CODEUNIT = type { i16 }
%struct.anon = type { i8, i8 }
%struct.PyFunctionObject = type { %struct._object, ptr, ptr, ptr, ptr, ptr, ptr, ptr, ptr, ptr, ptr, ptr, ptr, ptr, ptr, ptr, ptr, i32 }
%struct.PyCodeObject = type { %struct.PyVarObject, ptr, ptr, ptr, i32, i32, i32, i32, i32, i32, i32, i32, i32, i32, i32, i32, ptr, ptr, ptr, ptr, ptr, ptr, ptr, ptr, ptr, i64, ptr, i64, i32, ptr, [1 x i8] }
%struct._PyCallCache = type { %struct._Py_BackoffCounter, [2 x i16] }

@_Py_tss_tstate = external thread_local global ptr, align 8

; Function Attrs: inlinehint nounwind uwtable
define internal i16 @make_backoff_counter(i16 noundef zeroext %0, i16 noundef zeroext %1) #2 {
  %3 = alloca %struct._Py_BackoffCounter, align 2
  %4 = alloca i16, align 2
  %5 = alloca i16, align 2
  store i16 %0, ptr %4, align 2, !tbaa !13
  store i16 %1, ptr %5, align 2, !tbaa !13
  %6 = load i16, ptr %4, align 2, !tbaa !13
  %7 = zext i16 %6 to i32
  %8 = shl i32 %7, 4
  %9 = load i16, ptr %5, align 2, !tbaa !13
  %10 = zext i16 %9 to i32
  %11 = or i32 %8, %10
  %12 = trunc i32 %11 to i16
  %13 = getelementptr inbounds nuw %struct._Py_BackoffCounter, ptr %3, i32 0, i32 0
  store i16 %12, ptr %13, align 2, !tbaa !187
  %14 = getelementptr inbounds nuw %struct._Py_BackoffCounter, ptr %3, i32 0, i32 0
  %15 = load i16, ptr %14, align 2
  ret i16 %15
}

; Function Attrs: inlinehint nounwind uwtable
define internal i16 @adaptive_counter_bits(i16 noundef zeroext %0, i16 noundef zeroext %1) #2 {
  %3 = alloca %struct._Py_BackoffCounter, align 2
  %4 = alloca i16, align 2
  %5 = alloca i16, align 2
  store i16 %0, ptr %4, align 2, !tbaa !13
  store i16 %1, ptr %5, align 2, !tbaa !13
  %6 = load i16, ptr %4, align 2, !tbaa !13
  %7 = load i16, ptr %5, align 2, !tbaa !13
  %8 = call i16 @make_backoff_counter(i16 noundef zeroext %6, i16 noundef zeroext %7)
  %9 = getelementptr inbounds nuw %struct._Py_BackoffCounter, ptr %3, i32 0, i32 0
  store i16 %8, ptr %9, align 2
  %10 = getelementptr inbounds nuw %struct._Py_BackoffCounter, ptr %3, i32 0, i32 0
  %11 = load i16, ptr %10, align 2
  ret i16 %11
}

; Function Attrs: inlinehint nounwind uwtable
define internal void @set_counter(ptr noundef %0, i16 %1) #2 {
  %3 = alloca %struct._Py_BackoffCounter, align 2
  %4 = alloca ptr, align 8
  %5 = getelementptr inbounds nuw %struct._Py_BackoffCounter, ptr %3, i32 0, i32 0
  store i16 %1, ptr %5, align 2
  store ptr %0, ptr %4, align 8, !tbaa !4
  %6 = getelementptr inbounds nuw %struct._Py_BackoffCounter, ptr %3, i32 0, i32 0
  %7 = load i16, ptr %6, align 2, !tbaa !187
  %8 = load ptr, ptr %4, align 8, !tbaa !4
  %9 = getelementptr inbounds nuw %struct._Py_BackoffCounter, ptr %8, i32 0, i32 0
  store i16 %7, ptr %9, align 2, !tbaa !187
  ret void
}

; Function Attrs: inlinehint nounwind uwtable
define internal i16 @adaptive_counter_cooldown() #2 {
  %1 = alloca %struct._Py_BackoffCounter, align 2
  %2 = call i16 @adaptive_counter_bits(i16 noundef zeroext 52, i16 noundef zeroext 0)
  %3 = getelementptr inbounds nuw %struct._Py_BackoffCounter, ptr %1, i32 0, i32 0
  store i16 %2, ptr %3, align 2
  %4 = getelementptr inbounds nuw %struct._Py_BackoffCounter, ptr %1, i32 0, i32 0
  %5 = load i16, ptr %4, align 2
  ret i16 %5
}

; Function Attrs: inlinehint nounwind uwtable
define internal i32 @set_opcode(ptr noundef %0, i8 noundef zeroext %1) #2 {
  %3 = alloca ptr, align 8
  %4 = alloca i8, align 1
  store ptr %0, ptr %3, align 8, !tbaa !4
  store i8 %1, ptr %4, align 1, !tbaa !15
  %5 = load i8, ptr %4, align 1, !tbaa !15
  %6 = load ptr, ptr %3, align 8, !tbaa !4
  %7 = getelementptr inbounds nuw %struct.anon, ptr %6, i32 0, i32 0
  store i8 %5, ptr %7, align 2, !tbaa !15
  ret i32 1
}

; Function Attrs: inlinehint nounwind uwtable
define internal ptr @_PyThreadState_GET() #2 {
  %1 = call align 8 ptr @llvm.threadlocal.address.p0(ptr align 8 @_Py_tss_tstate)
  %2 = load ptr, ptr %1, align 8, !tbaa !159
  ret ptr %2
}

; Function Attrs: inlinehint nounwind uwtable
define internal void @specialize(ptr noundef %0, i8 noundef zeroext %1) #2 {
  %3 = alloca ptr, align 8
  %4 = alloca i8, align 1
  %5 = alloca %struct._Py_BackoffCounter, align 2
  store ptr %0, ptr %3, align 8, !tbaa !4
  store i8 %1, ptr %4, align 1, !tbaa !15
  %6 = load ptr, ptr %3, align 8, !tbaa !4
  %7 = load i8, ptr %4, align 1, !tbaa !15
  %8 = call i32 @set_opcode(ptr noundef %6, i8 noundef zeroext %7)
  %9 = icmp ne i32 %8, 0
  br i1 %9, label %11, label %10

10:                                               ; preds = %2
  br label %18

11:                                               ; preds = %2
  %12 = load ptr, ptr %3, align 8, !tbaa !4
  %13 = getelementptr %struct._Py_BackoffCounter, ptr %12, i64 1
  %14 = call i16 @adaptive_counter_cooldown()
  %15 = getelementptr inbounds nuw %struct._Py_BackoffCounter, ptr %5, i32 0, i32 0
  store i16 %14, ptr %15, align 2
  %16 = getelementptr inbounds nuw %struct._Py_BackoffCounter, ptr %5, i32 0, i32 0
  %17 = load i16, ptr %16, align 2
  call void @set_counter(ptr noundef %13, i16 %17)
  br label %18

18:                                               ; preds = %11, %10
  ret void
}

; Function Attrs: inlinehint nounwind uwtable
define internal void @write_u32(ptr noundef %0, i32 noundef %1) #2 {
  %3 = alloca ptr, align 8
  %4 = alloca i32, align 4
  store ptr %0, ptr %3, align 8, !tbaa !55
  store i32 %1, ptr %4, align 4, !tbaa !10
  %5 = load ptr, ptr %3, align 8, !tbaa !55
  call void @llvm.memcpy.p0.p0.i64(ptr align 2 %5, ptr align 4 %4, i64 4, i1 false)
  ret void
}

; Function Attrs: inlinehint nounwind uwtable
define internal i32 @_PyFunction_IsVersionValid(i32 noundef %0) #2 {
  %2 = alloca i32, align 4
  store i32 %0, ptr %2, align 4, !tbaa !10
  %3 = load i32, ptr %2, align 4, !tbaa !10
  %4 = icmp uge i32 %3, 2
  %5 = zext i1 %4 to i32
  ret i32 %5
}

; Function Attrs: inlinehint nounwind uwtable
define internal ptr @_PyInterpreterState_GET() #2 {
  %1 = alloca ptr, align 8
  call void @llvm.lifetime.start.p0(i64 8, ptr %1) #7
  %2 = call ptr @_PyThreadState_GET()
  store ptr %2, ptr %1, align 8, !tbaa !159
  %3 = load ptr, ptr %1, align 8, !tbaa !159
  %4 = getelementptr inbounds nuw %struct._ts, ptr %3, i32 0, i32 2
  %5 = load ptr, ptr %4, align 8, !tbaa !160
  call void @llvm.lifetime.end.p0(i64 8, ptr %1) #7
  ret ptr %5
}

; Function Attrs: nounwind uwtable
define internal i32 @function_kind(ptr noundef %0) #0 {
  %2 = alloca i32, align 4
  %3 = alloca ptr, align 8
  %4 = alloca i32, align 4
  %5 = alloca i32, align 4
  store ptr %0, ptr %3, align 8, !tbaa !72
  call void @llvm.lifetime.start.p0(i64 4, ptr %4) #7
  %6 = load ptr, ptr %3, align 8, !tbaa !72
  %7 = getelementptr inbounds nuw %struct.PyCodeObject, ptr %6, i32 0, i32 4
  %8 = load i32, ptr %7, align 8, !tbaa !157
  store i32 %8, ptr %4, align 4, !tbaa !10
  %9 = load i32, ptr %4, align 4, !tbaa !10
  %10 = and i32 %9, 12
  %11 = icmp ne i32 %10, 0
  br i1 %11, label %17, label %12

12:                                               ; preds = %1
  %13 = load ptr, ptr %3, align 8, !tbaa !72
  %14 = getelementptr inbounds nuw %struct.PyCodeObject, ptr %13, i32 0, i32 7
  %15 = load i32, ptr %14, align 4, !tbaa !158
  %16 = icmp ne i32 %15, 0
  br i1 %16, label %17, label %18

17:                                               ; preds = %12, %1
  store i32 7, ptr %2, align 4
  store i32 1, ptr %5, align 4
  br label %24

18:                                               ; preds = %12
  %19 = load i32, ptr %4, align 4, !tbaa !10
  %20 = and i32 %19, 1
  %21 = icmp eq i32 %20, 0
  br i1 %21, label %22, label %23

22:                                               ; preds = %18
  store i32 8, ptr %2, align 4
  store i32 1, ptr %5, align 4
  br label %24

23:                                               ; preds = %18
  store i32 0, ptr %2, align 4
  store i32 1, ptr %5, align 4
  br label %24

24:                                               ; preds = %23, %22, %17
  call void @llvm.lifetime.end.p0(i64 4, ptr %4) #7
  %25 = load i32, ptr %2, align 4
  ret i32 %25
}

; Function Attrs: nounwind uwtable
define internal i32 @specialize_py_call(ptr noundef %0, ptr noundef %1, i32 noundef %2, i1 noundef zeroext %3) #0 {
  %5 = alloca i32, align 4
  %6 = alloca ptr, align 8
  %7 = alloca ptr, align 8
  %8 = alloca i32, align 4
  %9 = alloca i8, align 1
  %10 = alloca ptr, align 8
  %11 = alloca ptr, align 8
  %12 = alloca i32, align 4
  %13 = alloca i32, align 4
  %14 = alloca i32, align 4
  %15 = alloca i32, align 4
  %16 = alloca i8, align 1
  store ptr %0, ptr %6, align 8, !tbaa !4
  store ptr %1, ptr %7, align 8, !tbaa !4
  store i32 %2, ptr %8, align 4, !tbaa !10
  %17 = zext i1 %3 to i8
  store i8 %17, ptr %9, align 1, !tbaa !22
  call void @llvm.lifetime.start.p0(i64 8, ptr %10) #7
  %18 = load ptr, ptr %7, align 8, !tbaa !4
  %19 = getelementptr %union._Py_CODEUNIT, ptr %18, i64 1
  store ptr %19, ptr %10, align 8, !tbaa !4
  call void @llvm.lifetime.start.p0(i64 8, ptr %11) #7
  %20 = load ptr, ptr %6, align 8, !tbaa !4
  %21 = getelementptr inbounds nuw %struct.PyFunctionObject, ptr %20, i32 0, i32 5
  %22 = load ptr, ptr %21, align 8, !tbaa !70
  store ptr %22, ptr %11, align 8, !tbaa !72
  call void @llvm.lifetime.start.p0(i64 4, ptr %12) #7
  %23 = load ptr, ptr %11, align 8, !tbaa !72
  %24 = call i32 @function_kind(ptr noundef %23)
  store i32 %24, ptr %12, align 4, !tbaa !10
  %25 = call ptr @_PyInterpreterState_GET()
  %26 = getelementptr inbounds nuw %struct._is, ptr %25, i32 0, i32 25
  %27 = load ptr, ptr %26, align 8, !tbaa !78
  %28 = icmp ne ptr %27, null
  br i1 %28, label %29, label %30

29:                                               ; preds = %4
  store i32 -1, ptr %5, align 4
  store i32 1, ptr %13, align 4
  br label %75

30:                                               ; preds = %4
  call void @llvm.lifetime.start.p0(i64 4, ptr %14) #7
  store i32 -1, ptr %14, align 4, !tbaa !10
  %31 = load i32, ptr %12, align 4, !tbaa !10
  %32 = icmp eq i32 %31, 8
  br i1 %32, label %33, label %34

33:                                               ; preds = %30
  store i32 -1, ptr %5, align 4
  store i32 1, ptr %13, align 4
  br label %74

34:                                               ; preds = %30
  %35 = load i32, ptr %12, align 4, !tbaa !10
  %36 = icmp eq i32 %35, 0
  br i1 %36, label %37, label %41

37:                                               ; preds = %34
  %38 = load ptr, ptr %11, align 8, !tbaa !72
  %39 = getelementptr inbounds nuw %struct.PyCodeObject, ptr %38, i32 0, i32 5
  %40 = load i32, ptr %39, align 4, !tbaa !74
  store i32 %40, ptr %14, align 4, !tbaa !10
  br label %41

41:                                               ; preds = %37, %34
  call void @llvm.lifetime.start.p0(i64 4, ptr %15) #7
  %42 = load ptr, ptr %6, align 8, !tbaa !4
  %43 = call i32 @_PyFunction_GetVersionForCurrentState(ptr noundef %42)
  store i32 %43, ptr %15, align 4, !tbaa !10
  %44 = load i32, ptr %15, align 4, !tbaa !10
  %45 = call i32 @_PyFunction_IsVersionValid(i32 noundef %44)
  %46 = icmp ne i32 %45, 0
  br i1 %46, label %48, label %47

47:                                               ; preds = %41
  store i32 -1, ptr %5, align 4
  store i32 1, ptr %13, align 4
  br label %73

48:                                               ; preds = %41
  %49 = load ptr, ptr %10, align 8, !tbaa !4
  %50 = getelementptr inbounds nuw %struct._PyCallCache, ptr %49, i32 0, i32 1
  %51 = getelementptr inbounds [2 x i16], ptr %50, i64 0, i64 0
  %52 = load i32, ptr %15, align 4, !tbaa !10
  call void @write_u32(ptr noundef %51, i32 noundef %52)
  call void @llvm.lifetime.start.p0(i64 1, ptr %16) #7
  %53 = load i32, ptr %14, align 4, !tbaa !10
  %54 = load i32, ptr %8, align 4, !tbaa !10
  %55 = load i8, ptr %9, align 1, !tbaa !22, !range !32, !noundef !33
  %56 = trunc i8 %55 to i1
  %57 = zext i1 %56 to i32
  %58 = add i32 %54, %57
  %59 = icmp eq i32 %53, %58
  br i1 %59, label %60, label %65

60:                                               ; preds = %48
  %61 = load i8, ptr %9, align 1, !tbaa !22, !range !32, !noundef !33
  %62 = trunc i8 %61 to i1
  %63 = select i1 %62, i32 164, i32 181
  %64 = trunc i32 %63 to i8
  store i8 %64, ptr %16, align 1, !tbaa !15
  br label %70

65:                                               ; preds = %48
  %66 = load i8, ptr %9, align 1, !tbaa !22, !range !32, !noundef !33
  %67 = trunc i8 %66 to i1
  %68 = select i1 %67, i32 165, i32 182
  %69 = trunc i32 %68 to i8
  store i8 %69, ptr %16, align 1, !tbaa !15
  br label %70

70:                                               ; preds = %65, %60
  %71 = load ptr, ptr %7, align 8, !tbaa !4
  %72 = load i8, ptr %16, align 1, !tbaa !15
  call void @specialize(ptr noundef %71, i8 noundef zeroext %72)
  store i32 0, ptr %5, align 4
  store i32 1, ptr %13, align 4
  call void @llvm.lifetime.end.p0(i64 1, ptr %16) #7
  br label %73

73:                                               ; preds = %70, %47
  call void @llvm.lifetime.end.p0(i64 4, ptr %15) #7
  br label %74

74:                                               ; preds = %73, %33
  call void @llvm.lifetime.end.p0(i64 4, ptr %14) #7
  br label %75

75:                                               ; preds = %74, %29
  call void @llvm.lifetime.end.p0(i64 4, ptr %12) #7
  call void @llvm.lifetime.end.p0(i64 8, ptr %11) #7
  call void @llvm.lifetime.end.p0(i64 8, ptr %10) #7
  %76 = load i32, ptr %5, align 4
  ret i32 %76
}