; Function Attrs: nounwind uwtable
define internal fastcc range(i32 -1, 1) i32 @specialize_py_call(ptr noundef %0, ptr noundef writeonly captures(none) %1, i32 noundef %2, i1 noundef zeroext %3) unnamed_addr #3 {
  %5 = getelementptr inbounds nuw i8, ptr %0, i64 48
  %6 = load ptr, ptr %5, align 8, !tbaa !67
  %7 = getelementptr inbounds nuw i8, ptr %6, i64 48
  %8 = load i32, ptr %7, align 8, !tbaa !69
  %9 = and i32 %8, 12
  %.not.i = icmp eq i32 %9, 0
  br i1 %.not.i, label %10, label %function_kind.exit

10:                                               ; preds = %4
  %11 = getelementptr inbounds nuw i8, ptr %6, i64 60
  %12 = load i32, ptr %11, align 4, !tbaa !71
  %.not4.i = icmp eq i32 %12, 0
  br i1 %.not4.i, label %13, label %function_kind.exit

13:                                               ; preds = %10
  %14 = shl i32 %8, 3
  %15 = and i32 %14, 8
  %..i = xor i32 %15, 8
  br label %function_kind.exit

function_kind.exit:                               ; preds = %4, %10, %13
  %.0.i = phi i32 [ 7, %10 ], [ 7, %4 ], [ %..i, %13 ]
  %16 = tail call align 8 ptr @llvm.threadlocal.address.p0(ptr align 8 @_Py_tss_tstate)
  %17 = load ptr, ptr %16, align 8, !tbaa !34
  %18 = getelementptr inbounds nuw i8, ptr %17, i64 16
  %19 = load ptr, ptr %18, align 8, !tbaa !36
  %20 = getelementptr inbounds nuw i8, ptr %19, i64 8472
  %21 = load ptr, ptr %20, align 8, !tbaa !73
  %.not = icmp eq ptr %21, null
  br i1 %.not, label %22, label %37

22:                                               ; preds = %function_kind.exit
  switch i32 %.0.i, label %26 [
    i32 8, label %37
    i32 0, label %23
  ]

23:                                               ; preds = %22
  %24 = getelementptr inbounds nuw i8, ptr %6, i64 52
  %25 = load i32, ptr %24, align 4, !tbaa !72
  br label %26

26:                                               ; preds = %22, %23
  %.018 = phi i32 [ %25, %23 ], [ -1, %22 ]
  %27 = tail call i32 @_PyFunction_GetVersionForCurrentState(ptr noundef nonnull %0) #9
  %28 = icmp ult i32 %27, 2
  br i1 %28, label %37, label %29

29:                                               ; preds = %26
  %30 = getelementptr i8, ptr %1, i64 4
  store i32 %27, ptr %30, align 2
  %31 = zext i1 %3 to i32
  %32 = add i32 %2, %31
  %33 = icmp eq i32 %.018, %32
  %34 = select i1 %3, i8 -92, i8 -75
  %35 = select i1 %3, i8 -91, i8 -74
  %.0 = select i1 %33, i8 %34, i8 %35
  store i8 %.0, ptr %1, align 2, !tbaa !4
  %36 = getelementptr i8, ptr %1, i64 2
  store i16 832, ptr %36, align 2, !tbaa !24
  br label %37

37:                                               ; preds = %22, %26, %29, %function_kind.exit
  %.017 = phi i32 [ -1, %function_kind.exit ], [ -1, %22 ], [ 0, %29 ], [ -1, %26 ]
  ret i32 %.017
}